(dp0
S'jnasser'
p1
(S'nasser'
p2
(lp3
S'sandbox.633'
p4
aS'sandbox.635'
p5
atp6
sS'skinfaxe2@stofanet.dk'
p7
(S'nordvest5'
p8
(lp9
S'sandbox.153'
p10
aS'sandbox.154'
p11
aS'sandbox.155'
p12
atp13
sS'madsen'
p14
(S'madsen'
p15
(lp16
S'sandbox.729'
p17
atp18
sS'moe2339'
p19
(S'hesten'
p20
(lp21
S'sandbox.1233'
p22
atp23
sS'elisabeth'
p24
(S'et-pogu'
p25
(lp26
S'sandbox.338'
p27
atp28
sS'Glizzard'
p29
(S'infinity'
p30
(lp31
S'sandbox.636'
p32
aS'sandbox.639'
p33
aS'sandbox.865'
p34
atp35
sS'goredon'
p36
(S''
p37
(lp38
S'sandbox.1159'
p39
atp40
sS'romanbif'
p41
(S'230687'
p42
(lp43
S'sandbox.584'
p44
aS'sandbox.585'
p45
atp46
sS'wagener'
p47
(S'140677'
p48
(lp49
S'sandbox.1252'
p50
aS'sandbox.1257'
p51
aS'sandbox.1259'
p52
aS'sandbox.1260'
p53
atp54
sS'sune'
p55
(S'5xfdg3'
p56
(lp57
tp58
sS'Nightxeon'
p59
(S'Jgohfhhd'
p60
(lp61
S'sandbox.604'
p62
atp63
sS'Rainbird'
p64
(S'mensmentis'
p65
(lp66
S'sandbox.888'
p67
aS'sandbox.892'
p68
aS'sandbox.893'
p69
aS'sandbox.894'
p70
aS'sandbox.903'
p71
aS'sandbox.907'
p72
atp73
sS'blackfly'
p74
(S'trutta'
p75
(lp76
S'sandbox.342'
p77
atp78
sS'pytte'
p79
(S'uodtovsc'
p80
(lp81
S'sandbox.1107'
p82
aS'sandbox.1109'
p83
aS'sandbox.1111'
p84
atp85
sS'phessellund'
p86
(S'2507'
p87
(lp88
S'sandbox.1300'
p89
atp90
sS'cahy'
p91
(S'Adadad10'
p92
(lp93
tp94
sS'PrebenGeertsen'
p95
(S'prebenergod'
p96
(lp97
S'sandbox.1313'
p98
atp99
sS'mortenfj'
p100
(S'nisan500'
p101
(lp102
S'sandbox.1132'
p103
atp104
sS'hejzero'
p105
(S'ken041117'
p106
(lp107
S'sandbox.829'
p108
atp109
sS'mwf'
p110
(S'mastermf'
p111
(lp112
S'sandbox.686'
p113
atp114
sS'goffi'
p115
(S'fluffy'
p116
(lp117
S'sandbox.1083'
p118
atp119
sS'tobiash'
p120
(S'11t04b72h'
p121
(lp122
S'sandbox.763'
p123
aS'sandbox.1027'
p124
atp125
sS'baddas'
p126
(S'cool'
p127
(lp128
S'sandbox.946'
p129
aS'sandbox.947'
p130
atp131
sS'Psycrow'
p132
(S'rabo56'
p133
(lp134
S'sandbox.1164'
p135
atp136
sS'rto'
p137
(S'240424'
p138
(lp139
S'sandbox.448'
p140
aS'sandbox.477'
p141
atp142
sS'ptrier'
p143
(S'2323'
p144
(lp145
S'sandbox.386'
p146
atp147
sS'egobent'
p148
(S'121212'
p149
(lp150
S'sandbox.559'
p151
atp152
sS'isijakel'
p153
(S'kiksekage'
p154
(lp155
S'sandbox.1210'
p156
atp157
sS'skovalf'
p158
(S'nissen'
p159
(lp160
S'sandbox.851'
p161
aS'sandbox.855'
p162
aS'sandbox.881'
p163
atp164
sS'Zenzei'
p165
(S'fisk1234'
p166
(lp167
S'sandbox.1275'
p168
atp169
sS'Brunuah'
p170
(S'WHatever12'
p171
(lp172
S'sandbox.932'
p173
aS'sandbox.933'
p174
aS'sandbox.936'
p175
aS'sandbox.940'
p176
atp177
sS'zhaitan'
p178
(g37
(lp179
S'sandbox.1158'
p180
atp181
sS'tk3200'
p182
(S'internet'
p183
(lp184
S'sandbox.1201'
p185
atp186
sS'bamstrup'
p187
(S'blowme2'
p188
(lp189
S'sandbox.1226'
p190
atp191
sS'jespervogt'
p192
(S'JVk473tv'
p193
(lp194
S'sandbox.1250'
p195
atp196
sS'Stoffer'
p197
(S'hardcore'
p198
(lp199
S'sandbox.727'
p200
atp201
sS'Hagen'
p202
(S'hagen'
p203
(lp204
S'sandbox.483'
p205
atp206
sS'kyster'
p207
(S'hitman'
p208
(lp209
S'sandbox.1170'
p210
atp211
sS'Rottendk'
p212
(S'okiehund'
p213
(lp214
tp215
sS'somol'
p216
(S'skovgade'
p217
(lp218
S'sandbox.223'
p219
aS'sandbox.224'
p220
atp221
sS'ShamblerDK'
p222
(S'iaml33t'
p223
(lp224
S'sandbox.552'
p225
aS'sandbox.554'
p226
atp227
sS'jelahaha'
p228
(S'alfalfa'
p229
(lp230
S'sandbox.1293'
p231
atp232
sS'Paul'
p233
(S'3539jerk'
p234
(lp235
S'sandbox.922'
p236
atp237
sS'Panda'
p238
(S'831015'
p239
(lp240
tp241
sS'nickwyke'
p242
(S'malawi'
p243
(lp244
S'sandbox.1069'
p245
atp246
sS'Ravenwood'
p247
(S'qwert'
p248
(lp249
S'sandbox.1124'
p250
aS'sandbox.1125'
p251
atp252
sS'Borch'
p253
(S'1qaz2wsx'
p254
(lp255
S'sandbox.230'
p256
atp257
sS'Kejser'
p258
(S'158630'
p259
(lp260
tp261
sS'frej'
p262
(S'color11'
p263
(lp264
S'sandbox.255'
p265
atp266
sS'Puppetmaster'
p267
(S'netsrac'
p268
(lp269
S'sandbox.617'
p270
atp271
sS'jan@gsco.dk'
p272
(S'98jan33'
p273
(lp274
S'sandbox.184'
p275
atp276
sS'SANDBOX_test'
p277
(S'test'
p278
(lp279
tp280
sS'burger'
p281
(S'pope60'
p282
(lp283
tp284
sS'aplarus'
p285
(S'Apmilvus01'
p286
(lp287
S'sandbox.371'
p288
aS'sandbox.372'
p289
atp290
sS'doktormadsen'
p291
(S'cmersej'
p292
(lp293
S'sandbox.925'
p294
atp295
sS'neznerol'
p296
(S'hund'
p297
(lp298
S'sandbox.186'
p299
aS'sandbox.187'
p300
atp301
sS'YoBilee'
p302
(S'jeghedderlarsen'
p303
(lp304
S'sandbox.645'
p305
aS'sandbox.648'
p306
aS'sandbox.649'
p307
aS'sandbox.650'
p308
aS'sandbox.735'
p309
atp310
sS'panda'
p311
(S'831015'
p312
(lp313
S'sandbox.1115'
p314
atp315
sS'TACRO'
p316
(S'TACRO'
p317
(lp318
S'sandbox.150'
p319
aS'sandbox.161'
p320
atp321
sS'dusted'
p322
(S'prettydarkness'
p323
(lp324
S'sandbox.695'
p325
atp326
sS'pokl'
p327
(S'KlosterVej'
p328
(lp329
S'sandbox.1294'
p330
aS'sandbox.1296'
p331
atp332
sS'RasH'
p333
(S'pippip'
p334
(lp335
S'sandbox.773'
p336
aS'sandbox.785'
p337
atp338
sS'LFCAR'
p339
(S'wmclarw'
p340
(lp341
S'sandbox.1341'
p342
atp343
sS'UffeBang'
p344
(S'Uf21fe45'
p345
(lp346
S'sandbox.1319'
p347
aS'sandbox.1326'
p348
aS'sandbox.1327'
p349
atp350
sS'Terrordan'
p351
(S'andreas507'
p352
(lp353
S'sandbox.1050'
p354
atp355
sS'SnakeEye'
p356
(S'120483'
p357
(lp358
S'sandbox.576'
p359
aS'sandbox.577'
p360
aS'sandbox.578'
p361
aS'sandbox.579'
p362
aS'sandbox.1169'
p363
atp364
sS'BazZerg'
p365
(S'B8cuw6adrehofDv'
p366
(lp367
S'sandbox.837'
p368
aS'sandbox.838'
p369
aS'sandbox.841'
p370
aS'sandbox.872'
p371
atp372
sS'floydian'
p373
(S'oPFgCEpD'
p374
(lp375
S'sandbox.1329'
p376
aS'sandbox.1340'
p377
atp378
sS'jacobvn'
p379
(S'lene80'
p380
(lp381
S'sandbox.1336'
p382
atp383
sS'Benny'
p384
(S'bsm1965'
p385
(lp386
S'sandbox.343'
p387
atp388
sS'jonas'
p389
(S'sandboxpw'
p390
(lp391
S'sandbox.264'
p392
aS'sandbox.265'
p393
aS'sandbox.266'
p394
aS'sandbox.267'
p395
aS'sandbox.268'
p396
aS'sandbox.269'
p397
aS'sandbox.270'
p398
aS'sandbox.271'
p399
aS'sandbox.272'
p400
aS'sandbox.273'
p401
aS'sandbox.279'
p402
aS'sandbox.283'
p403
aS'sandbox.289'
p404
aS'sandbox.290'
p405
aS'sandbox.296'
p406
aS'sandbox.299'
p407
aS'sandbox.300'
p408
aS'sandbox.301'
p409
aS'sandbox.302'
p410
aS'sandbox.303'
p411
aS'sandbox.304'
p412
aS'sandbox.305'
p413
aS'sandbox.306'
p414
aS'sandbox.307'
p415
aS'sandbox.308'
p416
aS'sandbox.310'
p417
aS'sandbox.311'
p418
aS'sandbox.316'
p419
aS'sandbox.318'
p420
aS'sandbox.321'
p421
aS'sandbox.327'
p422
aS'sandbox.498'
p423
aS'sandbox.499'
p424
aS'sandbox.500'
p425
aS'sandbox.501'
p426
aS'sandbox.502'
p427
aS'sandbox.503'
p428
aS'sandbox.504'
p429
aS'sandbox.505'
p430
aS'sandbox.506'
p431
aS'sandbox.507'
p432
aS'sandbox.508'
p433
aS'sandbox.511'
p434
aS'sandbox.512'
p435
aS'sandbox.513'
p436
aS'sandbox.514'
p437
aS'sandbox.515'
p438
aS'sandbox.516'
p439
aS'sandbox.517'
p440
aS'sandbox.518'
p441
aS'sandbox.519'
p442
aS'sandbox.520'
p443
aS'sandbox.521'
p444
aS'sandbox.522'
p445
atp446
sS'Mads'
p447
(S'taager'
p448
(lp449
S'sandbox.451'
p450
aS'sandbox.452'
p451
aS'sandbox.453'
p452
atp453
sS'Skytrucker'
p454
(S'noller23'
p455
(lp456
S'sandbox.1339'
p457
atp458
sS'gotdamn'
p459
(S'2753'
p460
(lp461
S'sandbox.1140'
p462
atp463
sS'bpc2403'
p464
(S'struck'
p465
(lp466
S'sandbox.1269'
p467
aS'sandbox.1270'
p468
atp469
sS'rasmus'
p470
(S'hen9lof1'
p471
(lp472
tp473
sS'Pale2'
p474
(S'4in14in1'
p475
(lp476
S'sandbox.587'
p477
atp478
sS'steffenthordal'
p479
(S'skalsefterskole'
p480
(lp481
S'sandbox.181'
p482
aS'sandbox.182'
p483
atp484
sS'PhonetiX'
p485
(S'palle2'
p486
(lp487
S'sandbox.1184'
p488
atp489
sS'wiredsource'
p490
(S'windows31'
p491
(lp492
S'sandbox.1095'
p493
atp494
sS'weblife'
p495
(S'123456'
p496
(lp497
S'sandbox.1227'
p498
atp499
sS'Dkzoffy'
p500
(S'Nicolai'
p501
(lp502
S'sandbox.1057'
p503
atp504
sS'perst'
p505
(S'20072007'
p506
(lp507
S'sandbox.958'
p508
aS'sandbox.959'
p509
aS'sandbox.961'
p510
atp511
sS'Janski'
p512
(S'12345'
p513
(lp514
tp515
sS'hansh'
p516
(S'andrik'
p517
(lp518
tp519
sS'Pale'
p520
(S'4in14in1'
p521
(lp522
S'sandbox.586'
p523
atp524
sS'HLA'
p525
(S'sikkerhed'
p526
(lp527
S'sandbox.1291'
p528
atp529
sS'IRCMonkey'
p530
(S'Felix.166'
p531
(lp532
S'sandbox.1290'
p533
aS'sandbox.1366'
p534
atp535
sS'saunders'
p536
(S'bjjtsalwp'
p537
(lp538
S'sandbox.291'
p539
aS'sandbox.292'
p540
aS'sandbox.293'
p541
atp542
sS'draconn'
p543
(S'frank123'
p544
(lp545
S'sandbox.624'
p546
atp547
sS'klader'
p548
(S'250395'
p549
(lp550
S'sandbox.1262'
p551
atp552
sS'MoMiMa'
p553
(S'mm3390'
p554
(lp555
S'sandbox.1097'
p556
atp557
sS'MrHott'
p558
(S'qwert'
p559
(lp560
S'sandbox.1034'
p561
atp562
sS'pjunge'
p563
(S'mallejo1'
p564
(lp565
S'sandbox.1245'
p566
atp567
sS'Futugia'
p568
(S'badboys9'
p569
(lp570
S'sandbox.1062'
p571
atp572
sS'taske'
p573
(S'1306'
p574
(lp575
tp576
sS'jsvarre'
p577
(S'dean'
p578
(lp579
tp580
sS'tbendsen'
p581
(S'anne7GRY'
p582
(lp583
S'sandbox.411'
p584
atp585
sS'dims13'
p586
(S'egu95b04'
p587
(lp588
S'sandbox.1089'
p589
aS'sandbox.1090'
p590
atp591
sS'darkend666'
p592
(S'wolf2630'
p593
(lp594
S'sandbox.1073'
p595
aS'sandbox.1074'
p596
aS'sandbox.1076'
p597
atp598
sS'ninas'
p599
(S'chatcat'
p600
(lp601
S'sandbox.469'
p602
atp603
sS'tzv'
p604
(S'matrix'
p605
(lp606
S'sandbox.603'
p607
atp608
sS'ulrikno'
p609
(S'659954'
p610
(lp611
S'sandbox.845'
p612
aS'sandbox.858'
p613
atp614
sS'JensBjerg'
p615
(S'klostervej23'
p616
(lp617
S'sandbox.457'
p618
atp619
sS'templar'
p620
(S'futte'
p621
(lp622
S'sandbox.1166'
p623
atp624
sS'mrask'
p625
(S'kirsten'
p626
(lp627
S'sandbox.408'
p628
atp629
sS'cbroegger'
p630
(S'dfgdfg'
p631
(lp632
S'sandbox.1049'
p633
atp634
sS'smoelbak'
p635
(S'0111nanna'
p636
(lp637
S'sandbox.470'
p638
atp639
sS'ccc32023'
p640
(S'1907791617'
p641
(lp642
S'sandbox.736'
p643
atp644
sS'mogenstjensen'
p645
(S'sofus'
p646
(lp647
S'sandbox.476'
p648
atp649
sS'Guf'
p650
(S'jldjld'
p651
(lp652
S'sandbox.180'
p653
atp654
sS'jmr'
p655
(S'sofo1211'
p656
(lp657
S'sandbox.1353'
p658
atp659
sS'Spyd3R'
p660
(S'hackie00'
p661
(lp662
S'sandbox.572'
p663
aS'sandbox.574'
p664
aS'sandbox.575'
p665
aS'sandbox.930'
p666
atp667
sS'kulsukker'
p668
(S'kulsukker'
p669
(lp670
S'sandbox.670'
p671
aS'sandbox.775'
p672
aS'sandbox.776'
p673
atp674
sS'ahlmann'
p675
(S'M4wBACDf'
p676
(lp677
S'sandbox.952'
p678
aS'sandbox.953'
p679
aS'sandbox.957'
p680
aS'sandbox.960'
p681
aS'sandbox.962'
p682
aS'sandbox.1168'
p683
atp684
sS'jmn'
p685
(S'jmn'
p686
(lp687
S'sandbox.738'
p688
atp689
sS'magnumeinz'
p690
(S'jn81grBH'
p691
(lp692
S'sandbox.609'
p693
atp694
sS'Charlatan'
p695
(S'skinke'
p696
(lp697
tp698
sS'larspolle'
p699
(S'468gok'
p700
(lp701
S'sandbox.1055'
p702
atp703
sS'hola'
p704
(S'holababy'
p705
(lp706
S'sandbox.456'
p707
atp708
sS'Andos'
p709
(S'gresi99'
p710
(lp711
S'sandbox.620'
p712
aS'sandbox.621'
p713
aS'sandbox.622'
p714
aS'sandbox.623'
p715
aS'sandbox.625'
p716
aS'sandbox.626'
p717
aS'sandbox.627'
p718
atp719
sS'DoubleG'
p720
(S'Maffy'
p721
(lp722
S'sandbox.784'
p723
atp724
sS'Matiz'
p725
(S'aq321321'
p726
(lp727
S'sandbox.1075'
p728
aS'sandbox.1077'
p729
aS'sandbox.1078'
p730
atp731
sS'nina'
p732
(S'chatcat'
p733
(lp734
S'sandbox.468'
p735
atp736
sS'110452'
p737
(S'engparken'
p738
(lp739
S'sandbox.370'
p740
atp741
sS'Alaunus'
p742
(S'240492'
p743
(lp744
S'sandbox.871'
p745
atp746
sS'NeoNmaN'
p747
(S'2110851467'
p748
(lp749
S'sandbox.966'
p750
aS'sandbox.968'
p751
atp752
sS'Viizard'
p753
(S'minnie'
p754
(lp755
S'sandbox.883'
p756
aS'sandbox.885'
p757
aS'sandbox.886'
p758
atp759
sS'SBJDEVTEST'
p760
(S'mju7ygv'
p761
(lp762
S'sandbox.409'
p763
atp764
sS'repox'
p765
(S'j26211'
p766
(lp767
S'sandbox.977'
p768
atp769
sS'kroghet'
p770
(S'moppet'
p771
(lp772
S'sandbox.1216'
p773
aS'sandbox.1217'
p774
atp775
sS'amaragni'
p776
(S'schultz'
p777
(lp778
S'sandbox.373'
p779
aS'sandbox.374'
p780
atp781
sS'unkle'
p782
(S'unkle'
p783
(lp784
S'sandbox.814'
p785
atp786
sS'FinAnd'
p787
(S'3932289'
p788
(lp789
S'sandbox.1079'
p790
atp791
sS'Grith'
p792
(S'zebra71'
p793
(lp794
S'sandbox.344'
p795
aS'sandbox.345'
p796
atp797
sS'telver'
p798
(S's23d4?h'
p799
(lp800
S'sandbox.421'
p801
aS'sandbox.422'
p802
atp803
sS'Panteren'
p804
(S'opus dei'
p805
(lp806
S'sandbox.1278'
p807
atp808
sS'soeby'
p809
(S'hemmeligt'
p810
(lp811
S'sandbox.945'
p812
atp813
sS'hhh'
p814
(S'zxcvbn'
p815
(lp816
S'sandbox.163'
p817
aS'sandbox.164'
p818
aS'sandbox.165'
p819
aS'sandbox.166'
p820
aS'sandbox.178'
p821
atp822
sS'arvox'
p823
(S'd4d2FHR'
p824
(lp825
S'sandbox.1151'
p826
aS'sandbox.1202'
p827
atp828
sS'hhl'
p829
(S'hhlmigrid'
p830
(lp831
S'sandbox.341'
p832
atp833
sS'cornerrage'
p834
(S'computer'
p835
(lp836
S'sandbox.944'
p837
atp838
sS'firewithin'
p839
(S'kir-no-R'
p840
(lp841
S'sandbox.1141'
p842
atp843
sS'killerkaj'
p844
(S'nille0208'
p845
(lp846
S'sandbox.194'
p847
atp848
sS'lkjonez'
p849
(g37
(lp850
tp851
sS'grosser'
p852
(S'hejmeddig'
p853
(lp854
S'sandbox.1024'
p855
atp856
sS'hofman'
p857
(S'020618'
p858
(lp859
S'sandbox.989'
p860
aS'sandbox.991'
p861
atp862
sS'tiels'
p863
(S'bridge2nk'
p864
(lp865
tp866
sS'galle'
p867
(S'migbelle0'
p868
(lp869
S'sandbox.543'
p870
atp871
sS'toubib'
p872
(S'toubib'
p873
(lp874
S'sandbox.148'
p875
atp876
sS'flipperdk'
p877
(S'rlhshgyp'
p878
(lp879
S'sandbox.549'
p880
atp881
sS'studiedata'
p882
(S'qazwsx12'
p883
(lp884
S'sandbox.1191'
p885
aS'sandbox.1192'
p886
atp887
sS'Jace'
p888
(S'htmp5638'
p889
(lp890
S'sandbox.565'
p891
aS'sandbox.1060'
p892
aS'sandbox.1188'
p893
atp894
sS'Phill'
p895
(S'klokke'
p896
(lp897
S'sandbox.824'
p898
aS'sandbox.825'
p899
atp900
sS'tdel'
p901
(S'pickme2'
p902
(lp903
S'sandbox.207'
p904
aS'sandbox.208'
p905
aS'sandbox.209'
p906
atp907
sS'jaandk'
p908
(S'sprutso'
p909
(lp910
S'sandbox.748'
p911
aS'sandbox.749'
p912
aS'sandbox.750'
p913
aS'sandbox.751'
p914
aS'sandbox.753'
p915
aS'sandbox.850'
p916
atp917
sS'Martin'
p918
(S'qwerty'
p919
(lp920
S'sandbox.570'
p921
aS'sandbox.571'
p922
atp923
sS'sippo'
p924
(S'wonderloop'
p925
(lp926
S'sandbox.997'
p927
aS'sandbox.998'
p928
aS'sandbox.1004'
p929
atp930
sS'hawk'
p931
(S'badehat'
p932
(lp933
S'sandbox.189'
p934
atp935
sS'meh2'
p936
(S'manMail'
p937
(lp938
S'sandbox.231'
p939
atp940
sS'steinn'
p941
(S'password'
p942
(lp943
S'sandbox.698'
p944
atp945
sS'alloc'
p946
(S'26451079'
p947
(lp948
S'sandbox.924'
p949
atp950
sS'freebsdusr'
p951
(S'3v3ry1'
p952
(lp953
S'sandbox.1232'
p954
atp955
sS'fritfald'
p956
(S'comcom'
p957
(lp958
S'sandbox.1261'
p959
atp960
sS'Darkwing'
p961
(S'code1435'
p962
(lp963
S'sandbox.652'
p964
atp965
sS'MichaelBerg'
p966
(S'2011792351'
p967
(lp968
S'sandbox.1180'
p969
atp970
sS'wezter'
p971
(S'020851p'
p972
(lp973
S'sandbox.1321'
p974
atp975
sS'martinm'
p976
(S'skole'
p977
(lp978
S'sandbox.568'
p979
aS'sandbox.569'
p980
aS'sandbox.573'
p981
atp982
sS'Simonsen1988'
p983
(S'15251'
p984
(lp985
S'sandbox.965'
p986
atp987
sS'benni'
p988
(S'erikerik'
p989
(lp990
S'sandbox.1010'
p991
aS'sandbox.1011'
p992
aS'sandbox.1013'
p993
aS'sandbox.1014'
p994
aS'sandbox.1015'
p995
aS'sandbox.1285'
p996
atp997
sS'sbtest'
p998
(S'sbtest'
p999
(lp1000
S'sandbox.119'
p1001
aS'sandbox.120'
p1002
aS'sandbox.121'
p1003
aS'sandbox.122'
p1004
aS'sandbox.123'
p1005
aS'sandbox.124'
p1006
aS'sandbox.125'
p1007
aS'sandbox.126'
p1008
aS'sandbox.127'
p1009
aS'sandbox.128'
p1010
aS'sandbox.129'
p1011
aS'sandbox.130'
p1012
aS'sandbox.131'
p1013
aS'sandbox.132'
p1014
aS'sandbox.133'
p1015
aS'sandbox.134'
p1016
aS'sandbox.135'
p1017
aS'sandbox.136'
p1018
aS'sandbox.137'
p1019
aS'sandbox.138'
p1020
aS'sandbox.170'
p1021
aS'sandbox.171'
p1022
aS'sandbox.175'
p1023
aS'sandbox.176'
p1024
aS'sandbox.179'
p1025
aS'sandbox.213'
p1026
aS'sandbox.215'
p1027
atp1028
sS'pidoxx'
p1029
(S'higher'
p1030
(lp1031
S'sandbox.755'
p1032
atp1033
sS'Nikke'
p1034
(g37
(lp1035
S'sandbox.867'
p1036
aS'sandbox.868'
p1037
atp1038
sS'Naughtydog'
p1039
(S'exehxnjs'
p1040
(lp1041
S'sandbox.668'
p1042
aS'sandbox.713'
p1043
aS'sandbox.986'
p1044
aS'sandbox.987'
p1045
aS'sandbox.992'
p1046
aS'sandbox.993'
p1047
aS'sandbox.996'
p1048
atp1049
sS'MRap99'
p1050
(S'alpo20'
p1051
(lp1052
S'sandbox.1282'
p1053
atp1054
sS'reptail'
p1055
(S'xel46jem'
p1056
(lp1057
S'sandbox.754'
p1058
atp1059
sS'frelser'
p1060
(S'27762411'
p1061
(lp1062
S'sandbox.999'
p1063
aS'sandbox.1000'
p1064
aS'sandbox.1001'
p1065
aS'sandbox.1002'
p1066
aS'sandbox.1006'
p1067
aS'sandbox.1007'
p1068
atp1069
sS'cablecat'
p1070
(S'sq28sq28'
p1071
(lp1072
S'sandbox.646'
p1073
atp1074
sS'Vildmand'
p1075
(S'jhjjhj'
p1076
(lp1077
tp1078
sS'LennyBoy'
p1079
(S'ajr44evq'
p1080
(lp1081
S'sandbox.876'
p1082
aS'sandbox.878'
p1083
aS'sandbox.1063'
p1084
atp1085
sS'jh49'
p1086
(S'efebongada'
p1087
(lp1088
S'sandbox.1307'
p1089
aS'sandbox.1337'
p1090
atp1091
sS'alme1'
p1092
(S'qcxnk1049'
p1093
(lp1094
S'sandbox.1315'
p1095
atp1096
sS'joha1712'
p1097
(S'kodeord'
p1098
(lp1099
S'sandbox.1299'
p1100
atp1101
sS'webee'
p1102
(S'khkhkh'
p1103
(lp1104
S'sandbox.1155'
p1105
aS'sandbox.1156'
p1106
atp1107
sS'tlyngej'
p1108
(S'77705555'
p1109
(lp1110
S'sandbox.1149'
p1111
aS'sandbox.1153'
p1112
aS'sandbox.1154'
p1113
atp1114
sS'tangot'
p1115
(S'rudeskov'
p1116
(lp1117
S'sandbox.360'
p1118
atp1119
sS'emilbp'
p1120
(S'NirQj9Fa'
p1121
(lp1122
S'sandbox.1118'
p1123
atp1124
sS'kunp20'
p1125
(S'loiuloiu'
p1126
(lp1127
S'sandbox.149'
p1128
atp1129
sS'siegaard'
p1130
(S'singapore'
p1131
(lp1132
S'sandbox.1276'
p1133
atp1134
sS'ppl2s'
p1135
(S'12345r'
p1136
(lp1137
S'sandbox.1264'
p1138
atp1139
sS'Kardi'
p1140
(S'bentmand'
p1141
(lp1142
S'sandbox.1211'
p1143
aS'sandbox.1212'
p1144
atp1145
sS'weber'
p1146
(S'rambO007'
p1147
(lp1148
S'sandbox.866'
p1149
aS'sandbox.875'
p1150
atp1151
sS'runesvend'
p1152
(S'irule123'
p1153
(lp1154
S'sandbox.1120'
p1155
atp1156
sS'Vejby'
p1157
(S'Hcefafdp1337'
p1158
(lp1159
S'sandbox.767'
p1160
aS'sandbox.768'
p1161
atp1162
sS'daffyMan'
p1163
(S'Spasser112'
p1164
(lp1165
S'sandbox.815'
p1166
atp1167
sS'kky'
p1168
(S'MiGkky'
p1169
(lp1170
S'sandbox.402'
p1171
aS'sandbox.403'
p1172
atp1173
sS'mattiasg'
p1174
(S'esselte'
p1175
(lp1176
S'sandbox.653'
p1177
atp1178
sS'twsvendsen'
p1179
(S'julemand'
p1180
(lp1181
S'sandbox.464'
p1182
aS'sandbox.465'
p1183
aS'sandbox.485'
p1184
aS'sandbox.487'
p1185
aS'sandbox.488'
p1186
aS'sandbox.489'
p1187
aS'sandbox.490'
p1188
aS'sandbox.491'
p1189
atp1190
sS'tssn'
p1191
(S'steffen31'
p1192
(lp1193
S'sandbox.642'
p1194
aS'sandbox.657'
p1195
aS'sandbox.659'
p1196
aS'sandbox.720'
p1197
atp1198
sS'bolden'
p1199
(S'select'
p1200
(lp1201
S'sandbox.813'
p1202
atp1203
sS'FeZtAr'
p1204
(S'100786'
p1205
(lp1206
S'sandbox.1274'
p1207
atp1208
sS'magrdk'
p1209
(S'2144452927'
p1210
(lp1211
S'sandbox.1297'
p1212
aS'sandbox.1298'
p1213
atp1214
sS'masterx'
p1215
(S'dakidaki'
p1216
(lp1217
tp1218
sS'cichos'
p1219
(S'lanilani'
p1220
(lp1221
S'sandbox.1317'
p1222
atp1223
sS'bono'
p1224
(S'achtung'
p1225
(lp1226
S'sandbox.210'
p1227
aS'sandbox.211'
p1228
aS'sandbox.212'
p1229
atp1230
sS'trine333'
p1231
(S'trine333'
p1232
(lp1233
S'sandbox.443'
p1234
atp1235
sS'Ottzen'
p1236
(S'eimies'
p1237
(lp1238
S'sandbox.937'
p1239
atp1240
sS'bursty'
p1241
(S'osttso'
p1242
(lp1243
S'sandbox.712'
p1244
aS'sandbox.737'
p1245
atp1246
sS'deathtrap'
p1247
(S'Kuq2914txJ5'
p1248
(lp1249
S'sandbox.1288'
p1250
aS'sandbox.1304'
p1251
aS'sandbox.1309'
p1252
aS'sandbox.1310'
p1253
aS'sandbox.1361'
p1254
aS'sandbox.1376'
p1255
aS'sandbox.1377'
p1256
aS'sandbox.1378'
p1257
aS'sandbox.1379'
p1258
aS'sandbox.1380'
p1259
aS'sandbox.1381'
p1260
aS'sandbox.1382'
p1261
atp1262
sS'vidas'
p1263
(S'screwman'
p1264
(lp1265
S'sandbox.533'
p1266
atp1267
sS'faetter'
p1268
(S'agnus30'
p1269
(lp1270
S'sandbox.663'
p1271
aS'sandbox.666'
p1272
atp1273
sS'lauer1000'
p1274
(S'mediator'
p1275
(lp1276
S'sandbox.1167'
p1277
atp1278
sS'mdh'
p1279
(S'qmla49za'
p1280
(lp1281
S'sandbox.361'
p1282
atp1283
sS'mdsloop'
p1284
(S'65416541'
p1285
(lp1286
S'sandbox.1102'
p1287
atp1288
sS'andcor'
p1289
(S'mankere'
p1290
(lp1291
S'sandbox.884'
p1292
atp1293
sS'jaws'
p1294
(S'bachpwd'
p1295
(lp1296
S'sandbox.197'
p1297
atp1298
sS'abildgaard'
p1299
(S'dikdik99'
p1300
(lp1301
S'sandbox.667'
p1302
atp1303
sS'regta'
p1304
(S'dd'
p1305
(lp1306
S'sandbox.564'
p1307
atp1308
sS'JunkStar'
p1309
(S'junkie2000'
p1310
(lp1311
S'sandbox.756'
p1312
atp1313
sS'jaycedk'
p1314
(S'minus1'
p1315
(lp1316
S'sandbox.860'
p1317
aS'sandbox.862'
p1318
aS'sandbox.870'
p1319
aS'sandbox.874'
p1320
aS'sandbox.879'
p1321
atp1322
sS'larchdk'
p1323
(S'augustin'
p1324
(lp1325
S'sandbox.441'
p1326
atp1327
sS'Mille'
p1328
(S'80898089'
p1329
(lp1330
S'sandbox.151'
p1331
aS'sandbox.152'
p1332
atp1333
sS'fjellerup'
p1334
(S'xnfsrr'
p1335
(lp1336
S'sandbox.826'
p1337
aS'sandbox.827'
p1338
atp1339
sS'BrianDemant'
p1340
(S'ic248w'
p1341
(lp1342
S'sandbox.206'
p1343
atp1344
sS'kenj'
p1345
(S'mig'
p1346
(lp1347
S'sandbox.560'
p1348
aS'sandbox.561'
p1349
atp1350
sS'larsros'
p1351
(S'lars0505'
p1352
(lp1353
S'sandbox.1352'
p1354
atp1355
sS'iznobad'
p1356
(S'Syv7Tre3'
p1357
(lp1358
S'sandbox.1197'
p1359
aS'sandbox.1198'
p1360
atp1361
sS'Holm'
p1362
(S'skafl'
p1363
(lp1364
tp1365
sS'daniel'
p1366
(S'daniel'
p1367
(lp1368
tp1369
sS'dsi'
p1370
(S'dsi'
p1371
(lp1372
S'sandbox.438'
p1373
atp1374
sS'saxifrage'
p1375
(S'dddgek'
p1376
(lp1377
S'sandbox.537'
p1378
atp1379
sS'vinter'
p1380
(S'test'
p1381
(lp1382
S'sandbox.329'
p1383
aS'sandbox.330'
p1384
atp1385
sS'Azick'
p1386
(S'janjan'
p1387
(lp1388
S'sandbox.1265'
p1389
aS'sandbox.1266'
p1390
atp1391
sS'scumbag'
p1392
(S'kakk21ll'
p1393
(lp1394
S'sandbox.1064'
p1395
atp1396
sS'unnamet'
p1397
(S'opkals'
p1398
(lp1399
S'sandbox.791'
p1400
atp1401
sS'VaNGoGO'
p1402
(S'4X25KZ'
p1403
(lp1404
S'sandbox.672'
p1405
atp1406
sS'boobo'
p1407
(S'hhels'
p1408
(lp1409
S'sandbox.582'
p1410
atp1411
sS'Phylock'
p1412
(S'5cAjmP'
p1413
(lp1414
S'sandbox.747'
p1415
aS'sandbox.752'
p1416
atp1417
sS'Fatboy213'
p1418
(S'uganda1984'
p1419
(lp1420
tp1421
sS'zigelation'
p1422
(S'qweasd'
p1423
(lp1424
tp1425
sS'silverwolf'
p1426
(S'matias99'
p1427
(lp1428
S'sandbox.684'
p1429
atp1430
sS'rexcmrex'
p1431
(S'cmrexdcr'
p1432
(lp1433
S'sandbox.220'
p1434
atp1435
sS'clauska'
p1436
(S'qo1xoXGp'
p1437
(lp1438
S'sandbox.1204'
p1439
atp1440
sS'the1bean'
p1441
(S'goldwing'
p1442
(lp1443
S'sandbox.644'
p1444
atp1445
sS'45xl22'
p1446
(S'P4Z2bt'
p1447
(lp1448
S'sandbox.1251'
p1449
atp1450
sS'renec'
p1451
(S'Deedls2#'
p1452
(lp1453
S'sandbox.658'
p1454
aS'sandbox.664'
p1455
atp1456
sS'elprickio'
p1457
(S'asroma'
p1458
(lp1459
S'sandbox.1246'
p1460
aS'sandbox.1247'
p1461
atp1462
sS'Bjeldbak'
p1463
(S'sempai'
p1464
(lp1465
S'sandbox.1244'
p1466
atp1467
sS'klafbang'
p1468
(S'jaqmd12'
p1469
(lp1470
S'sandbox.314'
p1471
atp1472
sS'duskeren'
p1473
(S'zaggazagga'
p1474
(lp1475
S'sandbox.1061'
p1476
atp1477
sS'Xalion'
p1478
(S'mamfaa'
p1479
(lp1480
S'sandbox.1105'
p1481
atp1482
sS'Nicoolai'
p1483
(S'fuckass'
p1484
(lp1485
S'sandbox.954'
p1486
atp1487
sS'chickenthief'
p1488
(S'kihasek'
p1489
(lp1490
S'sandbox.1311'
p1491
atp1492
sS'n00b'
p1493
(S'n00b12'
p1494
(lp1495
S'sandbox.810'
p1496
atp1497
sS'McM'
p1498
(S'frederikandreas'
p1499
(lp1500
S'sandbox.615'
p1501
aS'sandbox.616'
p1502
atp1503
sS'Duo'
p1504
(S'duo'
p1505
(lp1506
S'sandbox.482'
p1507
atp1508
sS'beeboman'
p1509
(g37
(lp1510
S'sandbox.583'
p1511
atp1512
sS'Adamite'
p1513
(S'BugOff'
p1514
(lp1515
tp1516
sS'svendemil'
p1517
(S'svendemil'
p1518
(lp1519
S'sandbox.629'
p1520
atp1521
sS'andeniel'
p1522
(S'fishwish'
p1523
(lp1524
S'sandbox.1308'
p1525
atp1526
sS'peterdv'
p1527
(S'peterdvd'
p1528
(lp1529
S'sandbox.218'
p1530
atp1531
sS'hehe'
p1532
(S'hehe'
p1533
(lp1534
tp1535
sS'Basoda'
p1536
(S'jubile'
p1537
(lp1538
S'sandbox.1127'
p1539
aS'sandbox.1128'
p1540
atp1541
sS'Kakaokongen'
p1542
(S'NuggaPower'
p1543
(lp1544
S'sandbox.605'
p1545
atp1546
sS'alltho6'
p1547
(S'science'
p1548
(lp1549
S'sandbox.1058'
p1550
atp1551
sS'djcappy'
p1552
(S'CASP2391'
p1553
(lp1554
S'sandbox.843'
p1555
aS'sandbox.844'
p1556
atp1557
sS'OBenned'
p1558
(S'2jrwvx2v'
p1559
(lp1560
S'sandbox.1119'
p1561
atp1562
sS'Seatech'
p1563
(S'eHR0FDZB'
p1564
(lp1565
S'sandbox.1277'
p1566
atp1567
sS'nrostgaard'
p1568
(S'jahojegs'
p1569
(lp1570
S'sandbox.339'
p1571
atp1572
sS'hotel'
p1573
(S'hotel'
p1574
(lp1575
S'sandbox.214'
p1576
atp1577
sS'rogm'
p1578
(S'bryllup'
p1579
(lp1580
S'sandbox.492'
p1581
atp1582
sS'chrolle'
p1583
(S'pingo9'
p1584
(lp1585
S'sandbox.679'
p1586
aS'sandbox.680'
p1587
atp1588
sS'esha'
p1589
(S'2448'
p1590
(lp1591
S'sandbox.742'
p1592
aS'sandbox.743'
p1593
aS'sandbox.746'
p1594
atp1595
sS'pnj'
p1596
(S'40414949'
p1597
(lp1598
S'sandbox.1071'
p1599
aS'sandbox.1072'
p1600
atp1601
sS'martinlaugesen'
p1602
(S'9155'
p1603
(lp1604
S'sandbox.1287'
p1605
atp1606
sS'Kurt'
p1607
(S'10331241'
p1608
(lp1609
S'sandbox.1322'
p1610
atp1611
sS'than'
p1612
(S'saport'
p1613
(lp1614
S'sandbox.1334'
p1615
aS'sandbox.1335'
p1616
atp1617
sS'hitachi'
p1618
(S'tissot'
p1619
(lp1620
S'sandbox.1342'
p1621
atp1622
sS'kjandersen'
p1623
(S'kjandersen'
p1624
(lp1625
S'sandbox.1231'
p1626
atp1627
sS'piil'
p1628
(S'dolken'
p1629
(lp1630
S'sandbox.493'
p1631
atp1632
sS'Lassedk'
p1633
(S'solb\xe6nk67'
p1634
(lp1635
S'sandbox.466'
p1636
atp1637
sS'buch78'
p1638
(S'han16sen'
p1639
(lp1640
S'sandbox.588'
p1641
aS'sandbox.589'
p1642
aS'sandbox.590'
p1643
aS'sandbox.591'
p1644
aS'sandbox.592'
p1645
aS'sandbox.593'
p1646
aS'sandbox.596'
p1647
aS'sandbox.598'
p1648
atp1649
sS'lbp'
p1650
(S'bp'
p1651
(lp1652
tp1653
sS'telli'
p1654
(S'yellow123'
p1655
(lp1656
tp1657
sS'saf'
p1658
(S'dd'
p1659
(lp1660
S'sandbox.779'
p1661
aS'sandbox.782'
p1662
aS'sandbox.793'
p1663
aS'sandbox.799'
p1664
aS'sandbox.1012'
p1665
aS'sandbox.1018'
p1666
aS'sandbox.1025'
p1667
aS'sandbox.1026'
p1668
aS'sandbox.1028'
p1669
aS'sandbox.1030'
p1670
aS'sandbox.1031'
p1671
aS'sandbox.1037'
p1672
aS'sandbox.1081'
p1673
aS'sandbox.1082'
p1674
atp1675
sS'lessarh'
p1676
(S'tis2gange'
p1677
(lp1678
S'sandbox.975'
p1679
aS'sandbox.976'
p1680
atp1681
sS'rlasse'
p1682
(S'1kk1ss'
p1683
(lp1684
S'sandbox.463'
p1685
aS'sandbox.467'
p1686
atp1687
sS'ras'
p1688
(S'ras'
p1689
(lp1690
S'sandbox.104'
p1691
aS'sandbox.105'
p1692
aS'sandbox.106'
p1693
aS'sandbox.107'
p1694
aS'sandbox.108'
p1695
aS'sandbox.109'
p1696
aS'sandbox.110'
p1697
aS'sandbox.111'
p1698
aS'sandbox.112'
p1699
aS'sandbox.113'
p1700
aS'sandbox.114'
p1701
aS'sandbox.115'
p1702
aS'sandbox.116'
p1703
aS'sandbox.117'
p1704
aS'sandbox.118'
p1705
aS'sandbox.225'
p1706
aS'sandbox.227'
p1707
aS'sandbox.228'
p1708
aS'sandbox.229'
p1709
aS'sandbox.232'
p1710
aS'sandbox.233'
p1711
aS'sandbox.234'
p1712
aS'sandbox.235'
p1713
aS'sandbox.236'
p1714
aS'sandbox.237'
p1715
aS'sandbox.238'
p1716
aS'sandbox.239'
p1717
aS'sandbox.240'
p1718
aS'sandbox.241'
p1719
aS'sandbox.242'
p1720
aS'sandbox.243'
p1721
aS'sandbox.244'
p1722
aS'sandbox.245'
p1723
aS'sandbox.246'
p1724
aS'sandbox.247'
p1725
aS'sandbox.248'
p1726
aS'sandbox.249'
p1727
aS'sandbox.250'
p1728
aS'sandbox.251'
p1729
aS'sandbox.252'
p1730
aS'sandbox.253'
p1731
aS'sandbox.254'
p1732
aS'sandbox.256'
p1733
aS'sandbox.257'
p1734
aS'sandbox.258'
p1735
aS'sandbox.259'
p1736
aS'sandbox.260'
p1737
aS'sandbox.261'
p1738
aS'sandbox.262'
p1739
aS'sandbox.263'
p1740
aS'sandbox.274'
p1741
aS'sandbox.275'
p1742
aS'sandbox.276'
p1743
aS'sandbox.277'
p1744
aS'sandbox.278'
p1745
aS'sandbox.280'
p1746
aS'sandbox.281'
p1747
aS'sandbox.282'
p1748
aS'sandbox.284'
p1749
aS'sandbox.285'
p1750
aS'sandbox.286'
p1751
aS'sandbox.287'
p1752
aS'sandbox.288'
p1753
aS'sandbox.294'
p1754
aS'sandbox.295'
p1755
aS'sandbox.297'
p1756
aS'sandbox.298'
p1757
aS'sandbox.309'
p1758
aS'sandbox.317'
p1759
aS'sandbox.319'
p1760
aS'sandbox.320'
p1761
aS'sandbox.322'
p1762
aS'sandbox.323'
p1763
aS'sandbox.331'
p1764
aS'sandbox.336'
p1765
aS'sandbox.351'
p1766
aS'sandbox.352'
p1767
aS'sandbox.359'
p1768
aS'sandbox.377'
p1769
aS'sandbox.378'
p1770
aS'sandbox.390'
p1771
aS'sandbox.394'
p1772
aS'sandbox.395'
p1773
aS'sandbox.396'
p1774
aS'sandbox.397'
p1775
aS'sandbox.399'
p1776
aS'sandbox.439'
p1777
aS'sandbox.450'
p1778
aS'sandbox.458'
p1779
aS'sandbox.459'
p1780
aS'sandbox.460'
p1781
aS'sandbox.461'
p1782
aS'sandbox.472'
p1783
aS'sandbox.473'
p1784
aS'sandbox.474'
p1785
aS'sandbox.475'
p1786
aS'sandbox.478'
p1787
aS'sandbox.484'
p1788
aS'sandbox.486'
p1789
aS'sandbox.525'
p1790
aS'sandbox.526'
p1791
aS'sandbox.527'
p1792
aS'sandbox.528'
p1793
aS'sandbox.529'
p1794
aS'sandbox.530'
p1795
aS'sandbox.531'
p1796
aS'sandbox.534'
p1797
aS'sandbox.535'
p1798
aS'sandbox.536'
p1799
aS'sandbox.780'
p1800
aS'sandbox.781'
p1801
aS'sandbox.783'
p1802
aS'sandbox.786'
p1803
aS'sandbox.788'
p1804
aS'sandbox.792'
p1805
aS'sandbox.794'
p1806
aS'sandbox.798'
p1807
atp1808
sS'timmisch'
p1809
(S'trille'
p1810
(lp1811
S'sandbox.419'
p1812
atp1813
sS'Cral'
p1814
(S'Nitram'
p1815
(lp1816
S'sandbox.1098'
p1817
aS'sandbox.1099'
p1818
atp1819
sS'keisen'
p1820
(S'keisen'
p1821
(lp1822
S'sandbox.1241'
p1823
aS'sandbox.1242'
p1824
aS'sandbox.1243'
p1825
atp1826
sS'mortendb'
p1827
(S'powertoy'
p1828
(lp1829
S'sandbox.562'
p1830
atp1831
sS'Elkoremarr'
p1832
(S'12qwaszx'
p1833
(lp1834
S'sandbox.831'
p1835
atp1836
sS'GetWell'
p1837
(S'FriskFisk67'
p1838
(lp1839
S'sandbox.1150'
p1840
aS'sandbox.1162'
p1841
atp1842
sS'min'
p1843
(S'min011090'
p1844
(lp1845
S'sandbox.1338'
p1846
atp1847
sS'mie'
p1848
(S'1977'
p1849
(lp1850
S'sandbox.440'
p1851
atp1852
sS'tomasd'
p1853
(S'spark500'
p1854
(lp1855
S'sandbox.610'
p1856
atp1857
sS'henne'
p1858
(S'xlafd'
p1859
(lp1860
S'sandbox.612'
p1861
aS'sandbox.613'
p1862
aS'sandbox.614'
p1863
atp1864
sS'liv'
p1865
(S'pippin'
p1866
(lp1867
S'sandbox.328'
p1868
atp1869
sS'CoB'
p1870
(S'LaMoxo0she'
p1871
(lp1872
S'sandbox.891'
p1873
aS'sandbox.895'
p1874
aS'sandbox.896'
p1875
aS'sandbox.897'
p1876
aS'sandbox.898'
p1877
aS'sandbox.899'
p1878
aS'sandbox.900'
p1879
aS'sandbox.901'
p1880
aS'sandbox.902'
p1881
aS'sandbox.904'
p1882
aS'sandbox.905'
p1883
aS'sandbox.910'
p1884
aS'sandbox.913'
p1885
atp1886
sS'nbhansen'
p1887
(S'br0dersen'
p1888
(lp1889
S'sandbox.918'
p1890
aS'sandbox.923'
p1891
atp1892
sS'ulrichlandbo'
p1893
(S'1jensulla1'
p1894
(lp1895
S'sandbox.1108'
p1896
aS'sandbox.1110'
p1897
atp1898
sS'frydkjaer'
p1899
(S'stable'
p1900
(lp1901
S'sandbox.1117'
p1902
atp1903
sS'norman'
p1904
(S'husbbkwq'
p1905
(lp1906
S'sandbox.1094'
p1907
atp1908
sS'trille'
p1909
(S'andrik'
p1910
(lp1911
S'sandbox.722'
p1912
atp1913
sS'hazel'
p1914
(S'velopung'
p1915
(lp1916
S'sandbox.942'
p1917
atp1918
sS'jsj'
p1919
(S'hedder'
p1920
(lp1921
S'sandbox.1043'
p1922
atp1923
sS'bsm'
p1924
(S'bsm'
p1925
(lp1926
S'sandbox.444'
p1927
atp1928
sS'mortenh'
p1929
(S'manMail'
p1930
(lp1931
S'sandbox.495'
p1932
aS'sandbox.496'
p1933
aS'sandbox.497'
p1934
aS'sandbox.509'
p1935
aS'sandbox.510'
p1936
aS'sandbox.523'
p1937
aS'sandbox.524'
p1938
atp1939
sS'flemming'
p1940
(S'billammm'
p1941
(lp1942
S'sandbox.1318'
p1943
atp1944
sS'Clemmensen'
p1945
(S'Lotto222'
p1946
(lp1947
tp1948
sS'leg3nd'
p1949
(S'gerfin'
p1950
(lp1951
S'sandbox.1218'
p1952
atp1953
sS'rommesdk'
p1954
(S'4302'
p1955
(lp1956
S'sandbox.921'
p1957
atp1958
sS'porotnikoff'
p1959
(S'sonja1510'
p1960
(lp1961
S'sandbox.167'
p1962
aS'sandbox.168'
p1963
aS'sandbox.172'
p1964
atp1965
sS'bjornbak'
p1966
(S'netopia'
p1967
(lp1968
S'sandbox.654'
p1969
atp1970
sS'kcseh'
p1971
(S'Koden1'
p1972
(lp1973
S'sandbox.1209'
p1974
atp1975
sS'nazul'
p1976
(S'qaz2411'
p1977
(lp1978
S'sandbox.1190'
p1979
aS'sandbox.1193'
p1980
aS'sandbox.1194'
p1981
atp1982
sS'Brainiac'
p1983
(S'Paperboy'
p1984
(lp1985
S'sandbox.909'
p1986
atp1987
sS'RBu'
p1988
(S'd7pk8123'
p1989
(lp1990
S'sandbox.1039'
p1991
atp1992
sS'Freakzter'
p1993
(S'thebombs'
p1994
(lp1995
S'sandbox.1020'
p1996
aS'sandbox.1116'
p1997
atp1998
sS'lene2'
p1999
(S'lene2'
p2000
(lp2001
S'sandbox.425'
p2002
atp2003
sS'miltersen'
p2004
(S'pakopako'
p2005
(lp2006
S'sandbox.185'
p2007
atp2008
sS'janmol'
p2009
(S'statoil'
p2010
(lp2011
S'sandbox.362'
p2012
atp2013
sS'lpk'
p2014
(S'iligccph'
p2015
(lp2016
S'sandbox.417'
p2017
aS'sandbox.418'
p2018
atp2019
sS'gafkhan'
p2020
(S'sony'
p2021
(lp2022
S'sandbox.859'
p2023
aS'sandbox.939'
p2024
atp2025
sS'xcitedk'
p2026
(S'861841'
p2027
(lp2028
S'sandbox.689'
p2029
aS'sandbox.690'
p2030
aS'sandbox.691'
p2031
atp2032
sS'jannicks'
p2033
(S'tango6'
p2034
(lp2035
S'sandbox.447'
p2036
atp2037
sS'smeaGOLL'
p2038
(S'smeaGOLL2003'
p2039
(lp2040
S'sandbox.1234'
p2041
atp2042
sS'romhn'
p2043
(S'smedjen'
p2044
(lp2045
S'sandbox.442'
p2046
atp2047
sS'jefferyLogan'
p2048
(S'bukbuk'
p2049
(lp2050
S'sandbox.1174'
p2051
aS'sandbox.1175'
p2052
aS'sandbox.1176'
p2053
atp2054
sS'XenoBIT'
p2055
(S'Factor05'
p2056
(lp2057
S'sandbox.1165'
p2058
atp2059
sS'madsOne'
p2060
(S'vfffvff1'
p2061
(lp2062
S'sandbox.1019'
p2063
atp2064
sS'abodilsen'
p2065
(S'Postkasse'
p2066
(lp2067
S'sandbox.971'
p2068
aS'sandbox.972'
p2069
aS'sandbox.1114'
p2070
atp2071
sS'Mivia'
p2072
(S'Bimse'
p2073
(lp2074
S'sandbox.1088'
p2075
atp2076
sS'nicondk'
p2077
(S'170485'
p2078
(lp2079
S'sandbox.1136'
p2080
atp2081
sS'reallife'
p2082
(S'123456'
p2083
(lp2084
S'sandbox.1228'
p2085
aS'sandbox.1229'
p2086
atp2087
sS'Alrekr'
p2088
(S'jbiBpR11'
p2089
(lp2090
S'sandbox.926'
p2091
aS'sandbox.927'
p2092
aS'sandbox.928'
p2093
aS'sandbox.934'
p2094
aS'sandbox.1092'
p2095
atp2096
sS'DonLobster'
p2097
(S'w3lld0ne'
p2098
(lp2099
S'sandbox.800'
p2100
atp2101
sS'slow'
p2102
(S'audislow'
p2103
(lp2104
S'sandbox.1130'
p2105
atp2106
sS'Grom'
p2107
(S'hendrix'
p2108
(lp2109
S'sandbox.1289'
p2110
atp2111
sS'Blazix'
p2112
(S'0503872323'
p2113
(lp2114
S'sandbox.1142'
p2115
atp2116
sS'corydoras'
p2117
(S'mistercandy'
p2118
(lp2119
S'sandbox.369'
p2120
atp2121
sS'rash'
p2122
(S'pippip'
p2123
(lp2124
S'sandbox.601'
p2125
atp2126
sS'lilleloppen'
p2127
(S'lilleloppen'
p2128
(lp2129
S'sandbox.611'
p2130
aS'sandbox.830'
p2131
aS'sandbox.839'
p2132
atp2133
sS'ckref'
p2134
(S'Live_mig7'
p2135
(lp2136
S'sandbox.640'
p2137
aS'sandbox.641'
p2138
atp2139
sS'ossi'
p2140
(S'ossi'
p2141
(lp2142
S'sandbox.1144'
p2143
atp2144
sS'hauge'
p2145
(S'jql7ui'
p2146
(lp2147
S'sandbox.979'
p2148
atp2149
sS'kadara'
p2150
(S'mads1337'
p2151
(lp2152
S'sandbox.705'
p2153
aS'sandbox.706'
p2154
aS'sandbox.707'
p2155
aS'sandbox.708'
p2156
aS'sandbox.711'
p2157
atp2158
sS'reggol'
p2159
(S'sk99sv'
p2160
(lp2161
S'sandbox.681'
p2162
atp2163
sS'zacker'
p2164
(S'zackers'
p2165
(lp2166
S'sandbox.1137'
p2167
atp2168
sS'Holger'
p2169
(S'19lkj75'
p2170
(lp2171
S'sandbox.1171'
p2172
atp2173
sS'Daduck'
p2174
(S'jja2661'
p2175
(lp2176
S'sandbox.1325'
p2177
atp2178
sS'Glizz'
p2179
(S'infinity'
p2180
(lp2181
S'sandbox.863'
p2182
atp2183
sS'jlerscreen'
p2184
(S'mig'
p2185
(lp2186
S'sandbox.405'
p2187
atp2188
sS'bonde'
p2189
(S'peter'
p2190
(lp2191
S'sandbox.764'
p2192
aS'sandbox.766'
p2193
aS'sandbox.770'
p2194
aS'sandbox.948'
p2195
atp2196
sS'bean'
p2197
(S'goldwing'
p2198
(lp2199
S'sandbox.634'
p2200
aS'sandbox.637'
p2201
atp2202
sS'Rahab'
p2203
(S'290379'
p2204
(lp2205
S'sandbox.1152'
p2206
atp2207
sS'CrallinZki'
p2208
(S'mcitoijk'
p2209
(lp2210
S'sandbox.683'
p2211
atp2212
sS'zrock'
p2213
(S'em24pleh'
p2214
(lp2215
S'sandbox.363'
p2216
aS'sandbox.364'
p2217
atp2218
sS'alme3'
p2219
(S'qcxnk1049'
p2220
(lp2221
S'sandbox.1369'
p2222
atp2223
sS'skimo'
p2224
(S'fragler'
p2225
(lp2226
S'sandbox.1022'
p2227
atp2228
sS'mailund'
p2229
(S'Design/CPN'
p2230
(lp2231
S'sandbox.313'
p2232
aS'sandbox.315'
p2233
atp2234
sS'explodedk'
p2235
(S'hte88tcp'
p2236
(lp2237
S'sandbox.731'
p2238
aS'sandbox.732'
p2239
atp2240
sS'semanta'
p2241
(S'5000'
p2242
(lp2243
S'sandbox.325'
p2244
atp2245
sS'gbj'
p2246
(S'jak11bit'
p2247
(lp2248
S'sandbox.1104'
p2249
atp2250
sS'madsmh'
p2251
(S'Shee3ben'
p2252
(lp2253
S'sandbox.1330'
p2254
aS'sandbox.1332'
p2255
aS'sandbox.1333'
p2256
atp2257
sS'SuneN'
p2258
(S'1914'
p2259
(lp2260
S'sandbox.1065'
p2261
aS'sandbox.1066'
p2262
aS'sandbox.1067'
p2263
aS'sandbox.1068'
p2264
atp2265
sS'jnielsen20'
p2266
(S'140188'
p2267
(lp2268
S'sandbox.820'
p2269
atp2270
sS'k1mz3'
p2271
(S'daufavcfckgwrhq'
p2272
(lp2273
S'sandbox.1205'
p2274
aS'sandbox.1206'
p2275
aS'sandbox.1208'
p2276
aS'sandbox.1219'
p2277
aS'sandbox.1222'
p2278
aS'sandbox.1223'
p2279
atp2280
sS'Backfixer'
p2281
(S'certinA'
p2282
(lp2283
S'sandbox.1367'
p2284
atp2285
sS'beebo'
p2286
(S'snabelaf'
p2287
(lp2288
S'sandbox.580'
p2289
aS'sandbox.581'
p2290
atp2291
sS'pvn'
p2292
(S'bummer'
p2293
(lp2294
S'sandbox.162'
p2295
aS'sandbox.169'
p2296
atp2297
sS'pisarm'
p2298
(S'ingi2mig'
p2299
(lp2300
S'sandbox.795'
p2301
aS'sandbox.797'
p2302
atp2303
sS'lenau'
p2304
(S'12345'
p2305
(lp2306
S'sandbox.920'
p2307
atp2308
sS'mads1'
p2309
(S'vfffvff1'
p2310
(lp2311
S'sandbox.835'
p2312
atp2313
sS'petm'
p2314
(S'falkush'
p2315
(lp2316
S'sandbox.1359'
p2317
atp2318
sS'Lonewind'
p2319
(S'l0tt0k4j'
p2320
(lp2321
S'sandbox.1272'
p2322
aS'sandbox.1273'
p2323
atp2324
sS'kjeldholm'
p2325
(S'oz1ccm'
p2326
(lp2327
S'sandbox.1364'
p2328
atp2329
sS'Lange'
p2330
(S'opus dei'
p2331
(lp2332
S'sandbox.188'
p2333
atp2334
sS'guldhammer'
p2335
(S'tobias6615'
p2336
(lp2337
S'sandbox.846'
p2338
aS'sandbox.847'
p2339
aS'sandbox.852'
p2340
atp2341
sS'hlintrup'
p2342
(S'VMf5inga'
p2343
(lp2344
S'sandbox.981'
p2345
aS'sandbox.982'
p2346
aS'sandbox.984'
p2347
aS'sandbox.988'
p2348
aS'sandbox.1041'
p2349
aS'sandbox.1214'
p2350
aS'sandbox.1215'
p2351
atp2352
sS'testbruger1'
p2353
(S'testy1'
p2354
(lp2355
S'sandbox.196'
p2356
aS'sandbox.198'
p2357
atp2358
sS'tux'
p2359
(S'jqntkvak'
p2360
(lp2361
S'sandbox.772'
p2362
atp2363
sS'bitmatic'
p2364
(S'eldrad'
p2365
(lp2366
S'sandbox.553'
p2367
atp2368
sS'JPAG'
p2369
(S'jalle123'
p2370
(lp2371
S'sandbox.950'
p2372
atp2373
sS'astroturf'
p2374
(S'12345678'
p2375
(lp2376
S'sandbox.985'
p2377
aS'sandbox.990'
p2378
atp2379
sS'valkin'
p2380
(S'gdshj2339'
p2381
(lp2382
S'sandbox.606'
p2383
aS'sandbox.607'
p2384
atp2385
sS'caag'
p2386
(S'snia'
p2387
(lp2388
S'sandbox.1362'
p2389
atp2390
sS'swiff'
p2391
(S'pringles'
p2392
(lp2393
tp2394
sS'meh'
p2395
(S'manmail'
p2396
(lp2397
S'sandbox.226'
p2398
atp2399
sS'lamah'
p2400
(S'29641363'
p2401
(lp2402
S'sandbox.546'
p2403
atp2404
sS'Tezla'
p2405
(S'skrammel'
p2406
(lp2407
S'sandbox.880'
p2408
aS'sandbox.887'
p2409
atp2410
sS'jon'
p2411
(S'hestepik'
p2412
(lp2413
S'sandbox.935'
p2414
aS'sandbox.938'
p2415
atp2416
sS'thenick'
p2417
(S'000000'
p2418
(lp2419
S'sandbox.1179'
p2420
atp2421
sS'trumpf'
p2422
(S'neilsen'
p2423
(lp2424
S'sandbox.1221'
p2425
atp2426
sS'JesperHansen'
p2427
(S'Oersted99'
p2428
(lp2429
tp2430
sS'SorteBen'
p2431
(S'satyricon'
p2432
(lp2433
tp2434
sS'kongen'
p2435
(S'kongentokoa28739649'
p2436
(lp2437
S'sandbox.821'
p2438
aS'sandbox.822'
p2439
aS'sandbox.833'
p2440
atp2441
sS'galadriel'
p2442
(S'AGPALLITIT'
p2443
(lp2444
S'sandbox.387'
p2445
atp2446
sS'kyhl'
p2447
(S'28804'
p2448
(lp2449
S'sandbox.723'
p2450
aS'sandbox.725'
p2451
aS'sandbox.730'
p2452
atp2453
sS'ANJ'
p2454
(S'MEMORY'
p2455
(lp2456
S'sandbox.1383'
p2457
atp2458
sS'rygaard'
p2459
(S'5000'
p2460
(lp2461
S'sandbox.335'
p2462
atp2463
sS'diskill'
p2464
(S'sdu'
p2465
(lp2466
S'sandbox.1085'
p2467
atp2468
sS'L1nK'
p2469
(S'wanderer'
p2470
(lp2471
S'sandbox.632'
p2472
atp2473
sS'Roflpopz'
p2474
(S'mike12'
p2475
(lp2476
S'sandbox.676'
p2477
aS'sandbox.677'
p2478
aS'sandbox.678'
p2479
atp2480
sS'mikkelbaekgaard'
p2481
(S'kf18brvst'
p2482
(lp2483
S'sandbox.340'
p2484
atp2485
sS'Coolbombom'
p2486
(S'Ma10nique'
p2487
(lp2488
S'sandbox.1182'
p2489
aS'sandbox.1183'
p2490
atp2491
sS'burhan'
p2492
(S'198383'
p2493
(lp2494
S'sandbox.963'
p2495
aS'sandbox.964'
p2496
aS'sandbox.967'
p2497
aS'sandbox.969'
p2498
aS'sandbox.970'
p2499
atp2500
sS'mikkidk'
p2501
(S'mikkimikki'
p2502
(lp2503
S'sandbox.567'
p2504
atp2505
sS'kurosawa'
p2506
(S'superman'
p2507
(lp2508
S'sandbox.661'
p2509
atp2510
sS'syska'
p2511
(S'flyttekasse'
p2512
(lp2513
S'sandbox.1093'
p2514
atp2515
sS'hoeiby'
p2516
(S'passsat99'
p2517
(lp2518
S'sandbox.1346'
p2519
aS'sandbox.1347'
p2520
aS'sandbox.1348'
p2521
aS'sandbox.1349'
p2522
aS'sandbox.1350'
p2523
atp2524
sS'fjolle'
p2525
(S'thefool'
p2526
(lp2527
S'sandbox.685'
p2528
atp2529
sS'BKJan'
p2530
(S'hanhund'
p2531
(lp2532
S'sandbox.1056'
p2533
atp2534
sS'pihl'
p2535
(S'150479'
p2536
(lp2537
S'sandbox.420'
p2538
atp2539
sS'Engelsby'
p2540
(S'1141'
p2541
(lp2542
S'sandbox.1237'
p2543
atp2544
sS'jzip'
p2545
(S'katrine99'
p2546
(lp2547
S'sandbox.1368'
p2548
atp2549
sS'LarsBoJensen'
p2550
(S'mig larsBaap'
p2551
(lp2552
S'sandbox.392'
p2553
aS'sandbox.401'
p2554
atp2555
sS'behrox'
p2556
(S'musik'
p2557
(lp2558
S'sandbox.915'
p2559
atp2560
sS'Henrik'
p2561
(S'overlund'
p2562
(lp2563
S'sandbox.1160'
p2564
atp2565
sS'SethEnoch'
p2566
(S'1337'
p2567
(lp2568
S'sandbox.656'
p2569
atp2570
sS'xaw'
p2571
(S'leet'
p2572
(lp2573
S'sandbox.1087'
p2574
atp2575
sS'Ufarlig'
p2576
(S'23041989'
p2577
(lp2578
S'sandbox.715'
p2579
aS'sandbox.717'
p2580
aS'sandbox.718'
p2581
aS'sandbox.724'
p2582
atp2583
sS'bjarnewarming'
p2584
(S'5900ida'
p2585
(lp2586
tp2587
sS'1707jw'
p2588
(S'jorgen09'
p2589
(lp2590
S'sandbox.383'
p2591
atp2592
sS'Faldsled'
p2593
(S'strandparken21'
p2594
(lp2595
S'sandbox.882'
p2596
atp2597
sS'Dragoe'
p2598
(S'dfu65gcn'
p2599
(lp2600
tp2601
sS'spiril'
p2602
(S'haugaard'
p2603
(lp2604
S'sandbox.890'
p2605
atp2606
sS'opmxopmx'
p2607
(S'Opmxopmx1'
p2608
(lp2609
S'sandbox.1283'
p2610
aS'sandbox.1284'
p2611
atp2612
sS'yusuf'
p2613
(S'584001565'
p2614
(lp2615
S'sandbox.857'
p2616
aS'sandbox.861'
p2617
atp2618
sS'Hugin777'
p2619
(S'ozwix'
p2620
(lp2621
tp2622
sS'beckholm'
p2623
(S'beckholm'
p2624
(lp2625
S'sandbox.406'
p2626
atp2627
sS'gummianden'
p2628
(S'290883'
p2629
(lp2630
S'sandbox.974'
p2631
atp2632
sS'Flasher'
p2633
(S'fredes'
p2634
(lp2635
S'sandbox.1045'
p2636
atp2637
sS'IkeDK'
p2638
(S'waccoracco'
p2639
(lp2640
S'sandbox.1086'
p2641
atp2642
sS'mdw007dk'
p2643
(S'kolde100'
p2644
(lp2645
S'sandbox.673'
p2646
aS'sandbox.674'
p2647
atp2648
sS'runo18'
p2649
(S'gdi0553S'
p2650
(lp2651
S'sandbox.539'
p2652
atp2653
sS'Kenneth'
p2654
(S'Bergen05'
p2655
(lp2656
S'sandbox.1305'
p2657
aS'sandbox.1351'
p2658
aS'sandbox.1370'
p2659
aS'sandbox.1371'
p2660
aS'sandbox.1372'
p2661
atp2662
sS'bjarne'
p2663
(S'ssspw'
p2664
(lp2665
S'sandbox.324'
p2666
atp2667
sS'Ketil'
p2668
(S'q6ws3km4'
p2669
(lp2670
S'sandbox.547'
p2671
atp2672
sS'KinCaid'
p2673
(S'rodman'
p2674
(lp2675
S'sandbox.744'
p2676
aS'sandbox.745'
p2677
atp2678
sS'a68254'
p2679
(S'1802732437c'
p2680
(lp2681
S'sandbox.326'
p2682
atp2683
sS'Lonkarr'
p2684
(S'eisman'
p2685
(lp2686
S'sandbox.733'
p2687
aS'sandbox.734'
p2688
atp2689
sS'zadorr'
p2690
(S'asfrraje010872'
p2691
(lp2692
tp2693
sS'siliankaas'
p2694
(S'snapscan'
p2695
(lp2696
S'sandbox.643'
p2697
aS'sandbox.665'
p2698
aS'sandbox.669'
p2699
aS'sandbox.675'
p2700
atp2701
sS'test11'
p2702
(S'test11'
p2703
(lp2704
S'sandbox.177'
p2705
atp2706
sS'line2399'
p2707
(S'ElskerWD'
p2708
(lp2709
S'sandbox.407'
p2710
atp2711
sS'lkfeddersen'
p2712
(S'240598'
p2713
(lp2714
S'sandbox.1017'
p2715
atp2716
sS'test14'
p2717
(S'test14'
p2718
(lp2719
S'sandbox.801'
p2720
atp2721
sS'Laz116'
p2722
(S'lifeisking'
p2723
(lp2724
S'sandbox.1091'
p2725
atp2726
sS'skotty'
p2727
(S'kult2459'
p2728
(lp2729
S'sandbox.694'
p2730
atp2731
sS'kyp33'
p2732
(S'ngug2455'
p2733
(lp2734
S'sandbox.811'
p2735
aS'sandbox.812'
p2736
aS'sandbox.832'
p2737
aS'sandbox.840'
p2738
atp2739
sS'nilsy'
p2740
(S'daniel'
p2741
(lp2742
tp2743
sS'gregersk'
p2744
(S'svin'
p2745
(lp2746
S'sandbox.1173'
p2747
aS'sandbox.1177'
p2748
aS'sandbox.1178'
p2749
aS'sandbox.1195'
p2750
aS'sandbox.1196'
p2751
atp2752
sS'jp1406'
p2753
(S'migrid/*-1234'
p2754
(lp2755
S'sandbox.1354'
p2756
aS'sandbox.1355'
p2757
aS'sandbox.1356'
p2758
aS'sandbox.1358'
p2759
atp2760
sS'pinky'
p2761
(S'brain'
p2762
(lp2763
S'sandbox.532'
p2764
atp2765
sS'star85'
p2766
(S'star10'
p2767
(lp2768
S'sandbox.555'
p2769
atp2770
sS'karstn'
p2771
(S'njn67kex'
p2772
(lp2773
S'sandbox.693'
p2774
aS'sandbox.699'
p2775
atp2776
sS'sauer'
p2777
(S'sauer86'
p2778
(lp2779
S'sandbox.548'
p2780
atp2781
sS'pepa'
p2782
(S'pepa8000'
p2783
(lp2784
S'sandbox.1253'
p2785
aS'sandbox.1254'
p2786
aS'sandbox.1256'
p2787
aS'sandbox.1263'
p2788
atp2789
sS'kurt'
p2790
(S'10331241'
p2791
(lp2792
S'sandbox.1323'
p2793
atp2794
sS'Holgersen'
p2795
(S'19lkj75'
p2796
(lp2797
tp2798
sS'zeon'
p2799
(S'kj8733cik'
p2800
(lp2801
S'sandbox.566'
p2802
atp2803
sS'Umulius'
p2804
(S'Emil1700'
p2805
(lp2806
tp2807
sS'Springer'
p2808
(S'modalle'
p2809
(lp2810
S'sandbox.757'
p2811
aS'sandbox.760'
p2812
aS'sandbox.765'
p2813
aS'sandbox.771'
p2814
aS'sandbox.774'
p2815
atp2816
sS'morten'
p2817
(S'morten'
p2818
(lp2819
S'sandbox.1157'
p2820
atp2821
sS'keddes'
p2822
(S'1234'
p2823
(lp2824
S'sandbox.1145'
p2825
aS'sandbox.1146'
p2826
atp2827
sS'hunterkil'
p2828
(S'hejhej'
p2829
(lp2830
S'sandbox.877'
p2831
atp2832
sS'Perus'
p2833
(S'november'
p2834
(lp2835
S'sandbox.1320'
p2836
atp2837
sS'kim'
p2838
(S'nessumsar1975'
p2839
(lp2840
S'sandbox.1135'
p2841
atp2842
sS'motten'
p2843
(S'morten'
p2844
(lp2845
S'sandbox.873'
p2846
atp2847
sS'hans'
p2848
(S'flapore'
p2849
(lp2850
S'sandbox.358'
p2851
atp2852
sS'MartinGroenbaek'
p2853
(S'samtron75e'
p2854
(lp2855
tp2856
sS'WolfAngel'
p2857
(S'wakka'
p2858
(lp2859
S'sandbox.1003'
p2860
aS'sandbox.1005'
p2861
aS'sandbox.1008'
p2862
atp2863
sS'kornum'
p2864
(S'alfred'
p2865
(lp2866
S'sandbox.350'
p2867
atp2868
sS'metheon'
p2869
(S'wast3land'
p2870
(lp2871
S'sandbox.563'
p2872
atp2873
sS'jonkni'
p2874
(S'eknyk48'
p2875
(lp2876
S'sandbox.455'
p2877
atp2878
sS'Sengir'
p2879
(S'action'
p2880
(lp2881
S'sandbox.1181'
p2882
atp2883
sS'alme'
p2884
(S'qcxnk1049'
p2885
(lp2886
S'sandbox.1314'
p2887
atp2888
sS'finnlarsen'
p2889
(S'findus41'
p2890
(lp2891
S'sandbox.471'
p2892
atp2893
sS'Silverknight'
p2894
(S'glasvej24'
p2895
(lp2896
S'sandbox.726'
p2897
aS'sandbox.728'
p2898
atp2899
sS'flyingfly'
p2900
(S'ecvgbwd'
p2901
(lp2902
S'sandbox.808'
p2903
atp2904
sS'karlerik'
p2905
(S'xkarlerik9'
p2906
(lp2907
S'sandbox.191'
p2908
atp2909
sS'witfelt'
p2910
(S'alfred'
p2911
(lp2912
S'sandbox.355'
p2913
aS'sandbox.356'
p2914
aS'sandbox.357'
p2915
aS'sandbox.385'
p2916
atp2917
sS'grugel'
p2918
(S'lepracon'
p2919
(lp2920
S'sandbox.1148'
p2921
atp2922
sS'Cactus'
p2923
(S'Forsk!'
p2924
(lp2925
tp2926
sS'ramos111'
p2927
(S'ramsoe22'
p2928
(lp2929
S'sandbox.1331'
p2930
atp2931
sS'test2'
p2932
(S'test2'
p2933
(lp2934
S'sandbox.391'
p2935
aS'sandbox.393'
p2936
aS'sandbox.398'
p2937
aS'sandbox.400'
p2938
aS'sandbox.423'
p2939
aS'sandbox.424'
p2940
aS'sandbox.426'
p2941
aS'sandbox.427'
p2942
aS'sandbox.428'
p2943
aS'sandbox.429'
p2944
aS'sandbox.430'
p2945
aS'sandbox.431'
p2946
aS'sandbox.432'
p2947
aS'sandbox.433'
p2948
aS'sandbox.434'
p2949
aS'sandbox.435'
p2950
aS'sandbox.436'
p2951
aS'sandbox.437'
p2952
aS'sandbox.545'
p2953
aS'sandbox.1029'
p2954
aS'sandbox.1032'
p2955
aS'sandbox.1033'
p2956
aS'sandbox.1035'
p2957
aS'sandbox.1036'
p2958
aS'sandbox.1038'
p2959
aS'sandbox.1040'
p2960
aS'sandbox.1046'
p2961
aS'sandbox.1047'
p2962
aS'sandbox.1048'
p2963
aS'sandbox.1225'
p2964
aS'sandbox.1255'
p2965
aS'sandbox.1258'
p2966
aS'sandbox.1267'
p2967
aS'sandbox.1271'
p2968
atp2969
sS'hdamtoft'
p2970
(S'sarah1008'
p2971
(lp2972
S'sandbox.955'
p2973
atp2974
sS'Ebbe'
p2975
(S'otsbli'
p2976
(lp2977
S'sandbox.479'
p2978
atp2979
sS'Pind'
p2980
(S'qsdf4161'
p2981
(lp2982
S'sandbox.687'
p2983
aS'sandbox.688'
p2984
aS'sandbox.692'
p2985
atp2986
sS'gauroman'
p2987
(S'anne123'
p2988
(lp2989
S'sandbox.911'
p2990
atp2991
sS'EssE'
p2992
(S'copyright'
p2993
(lp2994
S'sandbox.1009'
p2995
atp2996
sS'ps3'
p2997
(S'ps3'
p2998
(lp2999
tp3000
sS'ellebab'
p3001
(S'ellebab'
p3002
(lp3003
S'sandbox.709'
p3004
atp3005
sS'haj'
p3006
(S'kerberus'
p3007
(lp3008
S'sandbox.1363'
p3009
atp3010
sS'KokAmok'
p3011
(S'mariannepigen'
p3012
(lp3013
S'sandbox.1070'
p3014
atp3015
sS'mogens'
p3016
(S'86654266'
p3017
(lp3018
S'sandbox.1147'
p3019
atp3020
sS'Hydrasil'
p3021
(S'nevermore'
p3022
(lp3023
S'sandbox.647'
p3024
aS'sandbox.655'
p3025
aS'sandbox.662'
p3026
atp3027
sS'heimdaldk'
p3028
(S'fnb3139'
p3029
(lp3030
S'sandbox.1080'
p3031
atp3032
sS'hessellund'
p3033
(S'2507'
p3034
(lp3035
S'sandbox.1292'
p3036
atp3037
sS'adf'
p3038
(S'dfs'
p3039
(lp3040
S'sandbox.1121'
p3041
atp3042
sS'kucza'
p3043
(S'ethooPiroo'
p3044
(lp3045
S'sandbox.1054'
p3046
atp3047
sS'bng'
p3048
(S'siemens'
p3049
(lp3050
S'sandbox.1207'
p3051
atp3052
sS'ptravn'
p3053
(S'kulsukker07'
p3054
(lp3055
S'sandbox.777'
p3056
aS'sandbox.778'
p3057
atp3058
sS'perolsen'
p3059
(S'assweet'
p3060
(lp3061
S'sandbox.1249'
p3062
atp3063
sS'jesper'
p3064
(S'beatrice'
p3065
(lp3066
S'sandbox.158'
p3067
atp3068
sS'HolTaa'
p3069
(S'Vienna'
p3070
(lp3071
S'sandbox.1279'
p3072
atp3073
sS'AlteredSoul'
p3074
(S'lexmark'
p3075
(lp3076
S'sandbox.551'
p3077
atp3078
sS'GeneralBobo'
p3079
(S'area51'
p3080
(lp3081
S'sandbox.557'
p3082
aS'sandbox.558'
p3083
atp3084
sS'jclarsen'
p3085
(S'jamosat140'
p3086
(lp3087
S'sandbox.608'
p3088
atp3089
sS'qwe'
p3090
(S'adg'
p3091
(lp3092
tp3093
sS'likb'
p3094
(S'likb1830'
p3095
(lp3096
S'sandbox.1268'
p3097
atp3098
sS'jannis'
p3099
(S'fotini'
p3100
(lp3101
S'sandbox.221'
p3102
aS'sandbox.222'
p3103
atp3104
sS'Fynsk'
p3105
(S'gubbi'
p3106
(lp3107
S'sandbox.1123'
p3108
aS'sandbox.1126'
p3109
atp3110
sS'corydora'
p3111
(S'iijphl'
p3112
(lp3113
S'sandbox.375'
p3114
atp3115
sS'moa'
p3116
(S'Zaio69'
p3117
(lp3118
S'sandbox.480'
p3119
atp3120
sS'wdkstni'
p3121
(S'steen123'
p3122
(lp3123
S'sandbox.1281'
p3124
atp3125
sS'lundsoe4'
p3126
(S'dafaja'
p3127
(lp3128
S'sandbox.1286'
p3129
aS'sandbox.1324'
p3130
atp3131
sS'DonVang'
p3132
(S'051173'
p3133
(lp3134
S'sandbox.853'
p3135
atp3136
sS'christine'
p3137
(S'080669'
p3138
(lp3139
S'sandbox.347'
p3140
aS'sandbox.348'
p3141
aS'sandbox.349'
p3142
atp3143
sS'tgc'
p3144
(S'fister'
p3145
(lp3146
S'sandbox.1220'
p3147
atp3148
sS'torbens'
p3149
(S'lockmenow'
p3150
(lp3151
S'sandbox.1122'
p3152
atp3153
sS'plokke'
p3154
(S'prutstar'
p3155
(lp3156
S'sandbox.1133'
p3157
aS'sandbox.1139'
p3158
atp3159
sS'khybel'
p3160
(S'transmogryf'
p3161
(lp3162
S'sandbox.1301'
p3163
aS'sandbox.1302'
p3164
aS'sandbox.1303'
p3165
aS'sandbox.1312'
p3166
atp3167
sS'martinmilter'
p3168
(S'sullaco'
p3169
(lp3170
S'sandbox.1129'
p3171
atp3172
sS'keke'
p3173
(S'qk89dtxe'
p3174
(lp3175
S'sandbox.978'
p3176
aS'sandbox.980'
p3177
atp3178
sS'mediaos'
p3179
(S'salling1'
p3180
(lp3181
S'sandbox.628'
p3182
atp3183
sS'koralvej'
p3184
(S'zaxscd10'
p3185
(lp3186
S'sandbox.412'
p3187
aS'sandbox.413'
p3188
aS'sandbox.414'
p3189
atp3190
sS'CaTTeN'
p3191
(S'Force306'
p3192
(lp3193
S'sandbox.739'
p3194
aS'sandbox.740'
p3195
aS'sandbox.741'
p3196
atp3197
sS'grue'
p3198
(S'grue2083'
p3199
(lp3200
S'sandbox.761'
p3201
atp3202
sS'yonanu'
p3203
(S'bastard'
p3204
(lp3205
S'sandbox.192'
p3206
atp3207
sS'lundbymads'
p3208
(S'astrid'
p3209
(lp3210
S'sandbox.494'
p3211
atp3212
sS'Jydskatomkraft'
p3213
(S'julemand'
p3214
(lp3215
S'sandbox.556'
p3216
atp3217
sS'ole'
p3218
(S'123456'
p3219
(lp3220
S'sandbox.381'
p3221
atp3222
sS'spongebob'
p3223
(S'perlange'
p3224
(lp3225
S'sandbox.346'
p3226
atp3227
sS'oln'
p3228
(S'olnsimac'
p3229
(lp3230
S'sandbox.1240'
p3231
atp3232
sS'flundsten'
p3233
(S'flundsten'
p3234
(lp3235
S'sandbox.183'
p3236
atp3237
sS'Chewy'
p3238
(S'7278'
p3239
(lp3240
S'sandbox.842'
p3241
aS'sandbox.849'
p3242
aS'sandbox.1103'
p3243
atp3244
sS'thesky'
p3245
(S'mikael'
p3246
(lp3247
S'sandbox.602'
p3248
atp3249
sS'sommer'
p3250
(S'sg4we3101msat'
p3251
(lp3252
S'sandbox.160'
p3253
atp3254
sS'tva'
p3255
(S'kagemac'
p3256
(lp3257
S'sandbox.446'
p3258
atp3259
sS'sakjack'
p3260
(S'wecotravel37'
p3261
(lp3262
S'sandbox.983'
p3263
atp3264
sS'jgh'
p3265
(S'Oersted99'
p3266
(lp3267
S'sandbox.481'
p3268
atp3269
sS'Poker'
p3270
(S'Gode12sven'
p3271
(lp3272
S'sandbox.1131'
p3273
atp3274
sS'markpp'
p3275
(S'60115284'
p3276
(lp3277
S'sandbox.848'
p3278
aS'sandbox.854'
p3279
aS'sandbox.856'
p3280
aS'sandbox.864'
p3281
atp3282
sS'Nanosoft'
p3283
(S'8niina3'
p3284
(lp3285
S'sandbox.1186'
p3286
atp3287
sS'bentn'
p3288
(S't\xf8nnesgade'
p3289
(lp3290
S'sandbox.638'
p3291
atp3292
sS'erlingeybye'
p3293
(S'15203994'
p3294
(lp3295
S'sandbox.1023'
p3296
atp3297
sS'Thalanthas'
p3298
(S'ostereje'
p3299
(lp3300
S'sandbox.804'
p3301
aS'sandbox.806'
p3302
aS'sandbox.809'
p3303
atp3304
sS'birdlike'
p3305
(S'birdlike'
p3306
(lp3307
S'sandbox.1328'
p3308
atp3309
sS'smsbuller'
p3310
(S'07041963'
p3311
(lp3312
S'sandbox.1280'
p3313
atp3314
sS'Lex'
p3315
(S'bmsa50DK'
p3316
(lp3317
S'sandbox.1343'
p3318
aS'sandbox.1344'
p3319
aS'sandbox.1345'
p3320
atp3321
sS'roht'
p3322
(S'9488'
p3323
(lp3324
S'sandbox.1316'
p3325
atp3326
sS'Kirsten'
p3327
(S'p3034h'
p3328
(lp3329
S'sandbox.1360'
p3330
atp3331
sS'Floppo'
p3332
(S'oppolf'
p3333
(lp3334
S'sandbox.219'
p3335
atp3336
sS'tmo'
p3337
(S'bAlAtOn'
p3338
(lp3339
S'sandbox.365'
p3340
aS'sandbox.366'
p3341
aS'sandbox.367'
p3342
aS'sandbox.368'
p3343
atp3344
sS'Snol'
p3345
(S'Digger'
p3346
(lp3347
S'sandbox.714'
p3348
aS'sandbox.716'
p3349
aS'sandbox.721'
p3350
atp3351
sS'cga'
p3352
(S'89574825'
p3353
(lp3354
S'sandbox.817'
p3355
atp3356
sS'Anders'
p3357
(S'connect'
p3358
(lp3359
S'sandbox.1084'
p3360
atp3361
sS'theabh'
p3362
(S'eksakt'
p3363
(lp3364
S'sandbox.538'
p3365
atp3366
sS'saxo'
p3367
(S'xago1511'
p3368
(lp3369
S'sandbox.1213'
p3370
atp3371
sS'runep'
p3372
(S'distributed'
p3373
(lp3374
S'sandbox.1059'
p3375
atp3376
sS'stemann'
p3377
(S'Sputnik98'
p3378
(lp3379
S'sandbox.1365'
p3380
atp3381
sS'kagehat'
p3382
(S'runelax'
p3383
(lp3384
S'sandbox.912'
p3385
aS'sandbox.916'
p3386
aS'sandbox.917'
p3387
aS'sandbox.919'
p3388
atp3389
sS'roschnowski'
p3390
(S'M1GS5S'
p3391
(lp3392
S'sandbox.1096'
p3393
atp3394
sS'ozorgnax'
p3395
(S'fisse'
p3396
(lp3397
S'sandbox.1163'
p3398
atp3399
sS'Jada'
p3400
(S'111111'
p3401
(lp3402
S'sandbox.1161'
p3403
atp3404
sS'luckyboy'
p3405
(S'hulemand'
p3406
(lp3407
S'sandbox.200'
p3408
aS'sandbox.201'
p3409
aS'sandbox.202'
p3410
aS'sandbox.203'
p3411
aS'sandbox.204'
p3412
aS'sandbox.205'
p3413
atp3414
sS'nardus'
p3415
(S'kristian1979'
p3416
(lp3417
S'sandbox.156'
p3418
atp3419
sS'Wolfhagen'
p3420
(S'wolfhagen1'
p3421
(lp3422
S'sandbox.550'
p3423
aS'sandbox.949'
p3424
aS'sandbox.951'
p3425
atp3426
sS'skarpkant'
p3427
(S'John1432'
p3428
(lp3429
S'sandbox.1203'
p3430
atp3431
sS'gertsen'
p3432
(S'busblock'
p3433
(lp3434
S'sandbox.828'
p3435
atp3436
sS'dormann'
p3437
(S'dormann77'
p3438
(lp3439
S'sandbox.1112'
p3440
atp3441
sS'attermann'
p3442
(S'vagn16'
p3443
(lp3444
S'sandbox.193'
p3445
atp3446
sS'strib'
p3447
(S'807088'
p3448
(lp3449
S'sandbox.1042'
p3450
atp3451
sS'bkb18371'
p3452
(S'LasVegas1'
p3453
(lp3454
S'sandbox.1295'
p3455
atp3456
sS'mbe'
p3457
(S'navigati'
p3458
(lp3459
S'sandbox.787'
p3460
aS'sandbox.1224'
p3461
atp3462
sS'jens'
p3463
(S'neilsen'
p3464
(lp3465
S'sandbox.1138'
p3466
atp3467
sS'jumpin'
p3468
(S'Jumpin67'
p3469
(lp3470
S'sandbox.1106'
p3471
atp3472
sS'mras'
p3473
(S'hejhej'
p3474
(lp3475
S'sandbox.216'
p3476
aS'sandbox.217'
p3477
atp3478
sS'Duze'
p3479
(S'dgndozer'
p3480
(lp3481
S'sandbox.696'
p3482
aS'sandbox.700'
p3483
aS'sandbox.702'
p3484
aS'sandbox.703'
p3485
aS'sandbox.704'
p3486
aS'sandbox.719'
p3487
atp3488
sS'arvid'
p3489
(S'sfinx'
p3490
(lp3491
S'sandbox.190'
p3492
atp3493
sS'Henning'
p3494
(S'1respeKt'
p3495
(lp3496
S'sandbox.462'
p3497
atp3498
sS'claus'
p3499
(S'claus'
p3500
(lp3501
S'sandbox.1172'
p3502
atp3503
sS'jascca'
p3504
(S'cola2510'
p3505
(lp3506
S'sandbox.758'
p3507
aS'sandbox.759'
p3508
atp3509
sS'DeNovell'
p3510
(S'cure4me'
p3511
(lp3512
S'sandbox.660'
p3513
aS'sandbox.671'
p3514
aS'sandbox.1100'
p3515
atp3516
sS'henriktest2'
p3517
(S'abc'
p3518
(lp3519
tp3520
sS'rals'
p3521
(S'poweriddqd'
p3522
(lp3523
S'sandbox.619'
p3524
atp3525
sS'mkn'
p3526
(S'lollopopz'
p3527
(lp3528
S'sandbox.1051'
p3529
aS'sandbox.1052'
p3530
aS'sandbox.1053'
p3531
atp3532
sS'andersov'
p3533
(S'subscure'
p3534
(lp3535
S'sandbox.630'
p3536
atp3537
sS'Flemming'
p3538
(S'BjorgHilde'
p3539
(lp3540
S'sandbox.376'
p3541
atp3542
sS'lowfire'
p3543
(S'ermelund'
p3544
(lp3545
S'sandbox.1189'
p3546
atp3547
sS'hatchetman'
p3548
(S'f2b5zt8'
p3549
(lp3550
S'sandbox.594'
p3551
atp3552
sS'Barnabas'
p3553
(S'landrover'
p3554
(lp3555
S'sandbox.1248'
p3556
atp3557
sS'Zigma'
p3558
(S'brucelee'
p3559
(lp3560
S'sandbox.1113'
p3561
atp3562
sS'henriktest'
p3563
(S'abc'
p3564
(lp3565
S'sandbox.651'
p3566
atp3567
sS'jakhamp'
p3568
(S'us2yt424'
p3569
(lp3570
S'sandbox.816'
p3571
atp3572
sS'christofferdall'
p3573
(S'hannibal'
p3574
(lp3575
S'sandbox.1373'
p3576
aS'sandbox.1374'
p3577
aS'sandbox.1375'
p3578
atp3579
sS'thufir'
p3580
(S'it29hs'
p3581
(lp3582
S'sandbox.595'
p3583
aS'sandbox.597'
p3584
aS'sandbox.599'
p3585
aS'sandbox.600'
p3586
atp3587
sS'nueaf'
p3588
(S'aakkmm'
p3589
(lp3590
S'sandbox.1200'
p3591
atp3592
sS'kkkvist'
p3593
(S'KKKvist2007'
p3594
(lp3595
S'sandbox.379'
p3596
aS'sandbox.380'
p3597
atp3598
sS'perhand'
p3599
(S'skopje99'
p3600
(lp3601
S'sandbox.973'
p3602
atp3603
sS'tower48'
p3604
(S'yowerbar'
p3605
(lp3606
S'sandbox.388'
p3607
atp3608
sS'snhdk'
p3609
(S'snh3307'
p3610
(lp3611
S'sandbox.1238'
p3612
aS'sandbox.1239'
p3613
atp3614
sS'Sergenten'
p3615
(S'04081985'
p3616
(lp3617
S'sandbox.994'
p3618
aS'sandbox.995'
p3619
atp3620
sS'jensbjerg'
p3621
(S'klostervej23'
p3622
(lp3623
S'sandbox.454'
p3624
atp3625
sS'Eddie'
p3626
(S'dickeeier'
p3627
(lp3628
S'sandbox.682'
p3629
atp3630
sS'mads'
p3631
(S'mads'
p3632
(lp3633
S'sandbox.544'
p3634
atp3635
sS'jorgen09'
p3636
(S'1707jw'
p3637
(lp3638
S'sandbox.382'
p3639
aS'sandbox.384'
p3640
atp3641
sS'flarup'
p3642
(S'flarup'
p3643
(lp3644
S'sandbox.834'
p3645
aS'sandbox.836'
p3646
aS'sandbox.929'
p3647
aS'sandbox.931'
p3648
aS'sandbox.1143'
p3649
atp3650
sS'Rehr'
p3651
(S'M1GRu13Z'
p3652
(lp3653
tp3654
sS'rvj'
p3655
(S'Idkfaso2'
p3656
(lp3657
S'sandbox.1199'
p3658
atp3659
sS'pernille'
p3660
(S'mogens'
p3661
(lp3662
S'sandbox.333'
p3663
aS'sandbox.334'
p3664
atp3665
sS'cbm'
p3666
(S'jegersej'
p3667
(lp3668
S'sandbox.889'
p3669
aS'sandbox.1101'
p3670
atp3671
sS'lisbeth'
p3672
(S'mogens'
p3673
(lp3674
S'sandbox.332'
p3675
atp3676
sS'stufkan'
p3677
(S'stuf1109'
p3678
(lp3679
S'sandbox.818'
p3680
aS'sandbox.819'
p3681
atp3682
sS'kgepel'
p3683
(S'bm75hrgo'
p3684
(lp3685
S'sandbox.389'
p3686
atp3687
sS'Ferdinand'
p3688
(S'aqqalukse4318'
p3689
(lp3690
tp3691
sS'BMB2503'
p3692
(S'2503'
p3693
(lp3694
S'sandbox.337'
p3695
atp3696
sS'erbofloe'
p3697
(S'erbofloe'
p3698
(lp3699
S'sandbox.1044'
p3700
atp3701
sS'ToxDK'
p3702
(S'mmouse'
p3703
(lp3704
S'sandbox.906'
p3705
aS'sandbox.908'
p3706
atp3707
sS'djpede'
p3708
(S'nintendo'
p3709
(lp3710
S'sandbox.1230'
p3711
atp3712
sS'Cuebid'
p3713
(S'gt9x97'
p3714
(lp3715
S'sandbox.173'
p3716
aS'sandbox.174'
p3717
atp3718
sS'ulrik77'
p3719
(S'kisser'
p3720
(lp3721
S'sandbox.914'
p3722
atp3723
sS'KFAnd'
p3724
(S'62680805'
p3725
(lp3726
S'sandbox.956'
p3727
aS'sandbox.1021'
p3728
atp3729
sS'ferrari'
p3730
(S'nemt'
p3731
(lp3732
S'sandbox.312'
p3733
atp3734
sS'camillabrodersen'
p3735
(S'church'
p3736
(lp3737
S'sandbox.404'
p3738
atp3739
sS'Kcseh'
p3740
(S'Koden1'
p3741
(lp3742
S'sandbox.541'
p3743
aS'sandbox.542'
p3744
atp3745
sS'denedes'
p3746
(S'permand'
p3747
(lp3748
S'sandbox.618'
p3749
atp3750
sS'lene'
p3751
(S'lene'
p3752
(lp3753
S'sandbox.415'
p3754
aS'sandbox.416'
p3755
atp3756
sS'Newon3s'
p3757
(S'helms1'
p3758
(lp3759
S'sandbox.1016'
p3760
atp3761
sS'phengelholm'
p3762
(S'jeabpgkpf'
p3763
(lp3764
S'sandbox.159'
p3765
atp3766
sS'dragnes'
p3767
(S'Whatever12'
p3768
(lp3769
S'sandbox.943'
p3770
atp3771
sS'Kristoffer'
p3772
(S'pentagon2'
p3773
(lp3774
S'sandbox.540'
p3775
atp3776
sS'Sbrlpf'
p3777
(S'Aragon2'
p3778
(lp3779
S'sandbox.410'
p3780
atp3781
sS'drodcon'
p3782
(S'conny2349'
p3783
(lp3784
S'sandbox.157'
p3785
atp3786
sS'piamarialie'
p3787
(S'lie1974'
p3788
(lp3789
S'sandbox.353'
p3790
aS'sandbox.354'
p3791
atp3792
sS'martin'
p3793
(S'1141'
p3794
(lp3795
S'sandbox.1235'
p3796
aS'sandbox.1236'
p3797
atp3798
sS'cpx'
p3799
(S'tilde90'
p3800
(lp3801
tp3802
sS'ottokat'
p3803
(S'martha'
p3804
(lp3805
tp3806
sS'donoester'
p3807
(S'7913b1l1st'
p3808
(lp3809
S'sandbox.803'
p3810
aS'sandbox.805'
p3811
aS'sandbox.807'
p3812
aS'sandbox.1134'
p3813
atp3814
sS'Scott'
p3815
(S'08107777'
p3816
(lp3817
S'sandbox.631'
p3818
atp3819
sS'hertzum'
p3820
(S'4m420n45'
p3821
(lp3822
S'sandbox.445'
p3823
aS'sandbox.449'
p3824
atp3825
sS'nuuk'
p3826
(S'klasse'
p3827
(lp3828
S'sandbox.697'
p3829
aS'sandbox.701'
p3830
aS'sandbox.1357'
p3831
atp3832
sS'hstidsen'
p3833
(S'gedetybo'
p3834
(lp3835
S'sandbox.869'
p3836
aS'sandbox.1185'
p3837
aS'sandbox.1187'
p3838
atp3839
sS'Turner'
p3840
(S'7517'
p3841
(lp3842
S'sandbox.789'
p3843
aS'sandbox.790'
p3844
atp3845
sS'dezaud'
p3846
(S'dezaud'
p3847
(lp3848
S'sandbox.796'
p3849
aS'sandbox.802'
p3850
aS'sandbox.823'
p3851
atp3852
sS'lysningen'
p3853
(S'oy29537'
p3854
(lp3855
S'sandbox.1306'
p3856
atp3857
s.